; Function Attrs: mustprogress uwtable
define hidden void @_ZNK6google8protobuf8internal12MapFieldBase30SyncRepeatedFieldWithMapNoLockEv(ptr noundef nonnull align 8 captures(none) dereferenceable(68) %0) unnamed_addr #6 align 2 personality ptr @__gxx_personality_v0 {
  %2 = getelementptr inbounds nuw i8, ptr %0, i64 16
  %3 = load ptr, ptr %2, align 8, !tbaa !3
  %4 = icmp eq ptr %3, null
  br i1 %4, label %5, label %16

5:                                                ; preds = %1
  %6 = getelementptr inbounds nuw i8, ptr %0, i64 8
  %7 = load ptr, ptr %6, align 8, !tbaa !17
  %8 = icmp eq ptr %7, null
  br i1 %8, label %_ZN6google8protobuf5Arena14InternalHelperINS0_16RepeatedPtrFieldINS0_7MessageEEEE3NewEv.exit, label %10

_ZN6google8protobuf5Arena14InternalHelperINS0_16RepeatedPtrFieldINS0_7MessageEEEE3NewEv.exit: ; preds = %5
  %9 = tail call noalias noundef nonnull dereferenceable(24) ptr @_Znwm(i64 noundef 24) #31
  tail call void @llvm.memset.p0.i64(ptr noundef nonnull align 8 dereferenceable(24) %9, i8 0, i64 24, i1 false)
  br label %_ZN6google8protobuf5Arena21CreateMessageInternalINS0_16RepeatedPtrFieldINS0_7MessageEEEEEPT_PS1_.exit

10:                                               ; preds = %5
  %11 = tail call { ptr, ptr } @_ZN6google8protobuf5Arena26AllocateAlignedWithCleanupEmPKSt9type_info(ptr noundef nonnull align 8 dereferenceable(32) %7, i64 noundef 24, ptr noundef nonnull @_ZTIN6google8protobuf16RepeatedPtrFieldINS0_7MessageEEE)
  %12 = extractvalue { ptr, ptr } %11, 0
  %13 = extractvalue { ptr, ptr } %11, 1
  store ptr %12, ptr %13, align 8, !tbaa !18
  %14 = getelementptr inbounds nuw i8, ptr %13, i64 8
  store ptr @_ZN6google8protobuf8internal21arena_destruct_objectINS0_16RepeatedPtrFieldINS0_7MessageEEEEEvPv, ptr %14, align 8, !tbaa !20
  store ptr %7, ptr %12, align 8, !tbaa !21
  %15 = getelementptr inbounds nuw i8, ptr %12, i64 8
  tail call void @llvm.memset.p0.i64(ptr noundef nonnull align 8 dereferenceable(16) %15, i8 0, i64 16, i1 false)
  br label %_ZN6google8protobuf5Arena21CreateMessageInternalINS0_16RepeatedPtrFieldINS0_7MessageEEEEEPT_PS1_.exit

_ZN6google8protobuf5Arena21CreateMessageInternalINS0_16RepeatedPtrFieldINS0_7MessageEEEEEPT_PS1_.exit: ; preds = %_ZN6google8protobuf5Arena14InternalHelperINS0_16RepeatedPtrFieldINS0_7MessageEEEE3NewEv.exit, %10
  %.0.i = phi ptr [ %9, %_ZN6google8protobuf5Arena14InternalHelperINS0_16RepeatedPtrFieldINS0_7MessageEEEE3NewEv.exit ], [ %12, %10 ]
  store ptr %.0.i, ptr %2, align 8, !tbaa !3
  br label %16

16:                                               ; preds = %_ZN6google8protobuf5Arena21CreateMessageInternalINS0_16RepeatedPtrFieldINS0_7MessageEEEEEPT_PS1_.exit, %1
  ret void
}